; Function Attrs: nofree nounwind uwtable
define noalias noundef ptr @Gia_ManFindComplLuts(ptr noundef readonly captures(none) %0) local_unnamed_addr #9 {
  %2 = getelementptr i8, ptr %0, i64 24
  %.val39 = load i32, ptr %2, align 8, !tbaa !48
  %3 = ashr i32 %.val39, 5
  %4 = and i32 %.val39, 31
  %5 = icmp ne i32 %4, 0
  %6 = zext i1 %5 to i32
  %7 = add nsw i32 %3, %6
  %8 = tail call noalias dereferenceable_or_null(16) ptr @malloc(i64 noundef 16) #26
  %9 = shl nsw i32 %7, 5
  store i32 %9, ptr %8, align 8, !tbaa !82
  %.not.i.i = icmp eq i32 %7, 0
  br i1 %.not.i.i, label %Vec_BitStart.exit, label %10

10:                                               ; preds = %1
  %11 = sext i32 %7 to i64
  %12 = shl nsw i64 %11, 2
  %13 = tail call noalias ptr @malloc(i64 noundef %12) #26
  br label %Vec_BitStart.exit

Vec_BitStart.exit:                                ; preds = %1, %10
  %.pre-phi8.i = phi i64 [ %12, %10 ], [ 0, %1 ]
  %14 = phi ptr [ %13, %10 ], [ null, %1 ]
  %15 = getelementptr inbounds nuw i8, ptr %8, i64 4
  %16 = getelementptr inbounds nuw i8, ptr %8, i64 8
  store ptr %14, ptr %16, align 8, !tbaa !84
  store i32 %9, ptr %15, align 4, !tbaa !85
  tail call void @llvm.memset.p0.i64(ptr align 4 %14, i8 0, i64 %.pre-phi8.i, i1 false)
  %17 = getelementptr inbounds nuw i8, ptr %0, i64 72
  %18 = load ptr, ptr %17, align 8, !tbaa !42
  %19 = getelementptr i8, ptr %18, i64 4
  %.val3049 = load i32, ptr %19, align 4, !tbaa !34
  %20 = icmp sgt i32 %.val3049, 0
  br i1 %20, label %.lr.ph, label %.critedge2

.lr.ph:                                           ; preds = %Vec_BitStart.exit
  %21 = getelementptr i8, ptr %0, i64 32
  %.val37 = load ptr, ptr %21, align 8, !tbaa !41
  %22 = getelementptr i8, ptr %18, i64 8
  %.val38.val = load ptr, ptr %22, align 8, !tbaa !11
  %.not = icmp eq ptr %.val37, null
  br i1 %.not, label %.lr.ph57, label %.lr.ph.split

.lr.ph.split:                                     ; preds = %.lr.ph, %47
  %.val3063 = phi i32 [ %.val30, %47 ], [ %.val3049, %.lr.ph ]
  %indvars.iv = phi i64 [ %indvars.iv.next, %47 ], [ 0, %.lr.ph ]
  %23 = getelementptr inbounds nuw i32, ptr %.val38.val, i64 %indvars.iv
  %24 = load i32, ptr %23, align 4, !tbaa !10
  %25 = sext i32 %24 to i64
  %26 = getelementptr inbounds %struct.Gia_Obj_t_, ptr %.val37, i64 %25
  %27 = load i64, ptr %26, align 4
  %28 = and i64 %27, 536870911
  %29 = sub nsw i64 0, %28
  %30 = getelementptr inbounds %struct.Gia_Obj_t_, ptr %26, i64 %29
  %.val32 = load i64, ptr %30, align 4
  %31 = and i64 %.val32, 2147483648
  %.not.i = icmp ne i64 %31, 0
  %32 = and i64 %.val32, 536870911
  %33 = icmp eq i64 %32, 536870911
  %narrow.i.not = or i1 %.not.i, %33
  br i1 %narrow.i.not, label %47, label %34

34:                                               ; preds = %.lr.ph.split
  %35 = trunc i64 %27 to i32
  %36 = and i32 %35, 536870912
  %.not29 = icmp eq i32 %36, 0
  br i1 %.not29, label %47, label %37

37:                                               ; preds = %34
  %38 = and i32 %35, 536870911
  %39 = sub nsw i32 %24, %38
  %40 = and i32 %39, 31
  %41 = shl nuw i32 1, %40
  %42 = ashr i32 %39, 5
  %43 = sext i32 %42 to i64
  %44 = getelementptr inbounds i32, ptr %14, i64 %43
  %45 = load i32, ptr %44, align 4, !tbaa !10
  %46 = or i32 %45, %41
  store i32 %46, ptr %44, align 4, !tbaa !10
  %.val30.pre = load i32, ptr %19, align 4, !tbaa !34
  br label %47

47:                                               ; preds = %.lr.ph.split, %34, %37
  %.val30 = phi i32 [ %.val3063, %.lr.ph.split ], [ %.val3063, %34 ], [ %.val30.pre, %37 ]
  %indvars.iv.next = add nuw nsw i64 %indvars.iv, 1
  %48 = sext i32 %.val30 to i64
  %49 = icmp slt i64 %indvars.iv.next, %48
  br i1 %49, label %.lr.ph.split, label %.critedge, !llvm.loop !86

.critedge:                                        ; preds = %47
  %50 = icmp sgt i32 %.val30, 0
  br i1 %50, label %.lr.ph57, label %.critedge2

.lr.ph57:                                         ; preds = %.lr.ph, %.critedge
  %.val5569 = phi i32 [ %.val30, %.critedge ], [ %.val3049, %.lr.ph ]
  %51 = getelementptr i8, ptr %0, i64 32
  %.val35 = load ptr, ptr %51, align 8, !tbaa !41
  %52 = getelementptr i8, ptr %18, i64 8
  %.val36.val = load ptr, ptr %52, align 8, !tbaa !11
  %.not25 = icmp eq ptr %.val35, null
  br i1 %.not25, label %.critedge2, label %.lr.ph57.split

.lr.ph57.split:                                   ; preds = %.lr.ph57, %78
  %.val66 = phi i32 [ %.val, %78 ], [ %.val5569, %.lr.ph57 ]
  %indvars.iv60 = phi i64 [ %indvars.iv.next61, %78 ], [ 0, %.lr.ph57 ]
  %53 = getelementptr inbounds nuw i32, ptr %.val36.val, i64 %indvars.iv60
  %54 = load i32, ptr %53, align 4, !tbaa !10
  %55 = sext i32 %54 to i64
  %56 = getelementptr inbounds %struct.Gia_Obj_t_, ptr %.val35, i64 %55
  %57 = load i64, ptr %56, align 4
  %58 = and i64 %57, 536870911
  %59 = sub nsw i64 0, %58
  %60 = getelementptr inbounds %struct.Gia_Obj_t_, ptr %56, i64 %59
  %.val31 = load i64, ptr %60, align 4
  %61 = and i64 %.val31, 2147483648
  %.not.i42 = icmp ne i64 %61, 0
  %62 = and i64 %.val31, 536870911
  %63 = icmp eq i64 %62, 536870911
  %narrow.i43.not = or i1 %.not.i42, %63
  br i1 %narrow.i43.not, label %78, label %64

64:                                               ; preds = %.lr.ph57.split
  %65 = trunc i64 %57 to i32
  %66 = and i32 %65, 536870912
  %.not27 = icmp eq i32 %66, 0
  br i1 %.not27, label %67, label %78

67:                                               ; preds = %64
  %68 = and i32 %65, 536870911
  %69 = sub nsw i32 %54, %68
  %70 = and i32 %69, 31
  %71 = shl nuw i32 1, %70
  %72 = xor i32 %71, -1
  %73 = ashr i32 %69, 5
  %74 = sext i32 %73 to i64
  %75 = getelementptr inbounds i32, ptr %14, i64 %74
  %76 = load i32, ptr %75, align 4, !tbaa !10
  %77 = and i32 %76, %72
  store i32 %77, ptr %75, align 4, !tbaa !10
  %.val.pre = load i32, ptr %19, align 4, !tbaa !34
  br label %78

78:                                               ; preds = %.lr.ph57.split, %64, %67
  %.val = phi i32 [ %.val66, %.lr.ph57.split ], [ %.val66, %64 ], [ %.val.pre, %67 ]
  %indvars.iv.next61 = add nuw nsw i64 %indvars.iv60, 1
  %79 = sext i32 %.val to i64
  %80 = icmp slt i64 %indvars.iv.next61, %79
  br i1 %80, label %.lr.ph57.split, label %.critedge2, !llvm.loop !87

.critedge2:                                       ; preds = %78, %Vec_BitStart.exit, %.lr.ph57, %.critedge
  ret ptr %8
}